target datalayout = "e-m:e-p270:32:32-p271:32:32-p272:64:64-i64:64-i128:128-f80:128-n8:16:32:64-S128"
target triple = "x86_64-pc-linux-gnu"

%struct.addrinfo = type { i32, i32, i32, i32, i32, ptr, ptr, ptr }
%union.pthread_mutex_t = type { %struct.__pthread_mutex_s }
%struct.__pthread_mutex_s = type { i32, i32, i32, i32, i32, i16, i16, %struct.__pthread_internal_list }
%struct.__pthread_internal_list = type { ptr, ptr }
%union.pthread_cond_t = type { %struct.__pthread_cond_s }
%struct.__pthread_cond_s = type { %union.__atomic_wide_counter, %union.__atomic_wide_counter, [2 x i32], [2 x i32], i32, i32, [2 x i32] }
%union.__atomic_wide_counter = type { i64 }
%struct.getaddrinfo_arg = type { ptr, ptr, %struct.addrinfo, ptr, i32, i32, i32, i32, i32, %union.pthread_mutex_t, %union.pthread_cond_t }

; Function Attrs: nounwind sspstrong uwtable
define internal void @cancel_getaddrinfo(ptr noundef %0) #0 {
  %2 = alloca ptr, align 8
  %3 = alloca ptr, align 8
  store ptr %0, ptr %2, align 8, !tbaa !26
  call void @llvm.lifetime.start.p0(i64 8, ptr %3) #24
  %4 = load ptr, ptr %2, align 8, !tbaa !26
  store ptr %4, ptr %3, align 8, !tbaa !87
  %5 = load ptr, ptr %3, align 8, !tbaa !87
  %6 = getelementptr inbounds nuw %struct.getaddrinfo_arg, ptr %5, i32 0, i32 9
  call void @rb_nativethread_lock_lock(ptr noundef %6)
  %7 = load ptr, ptr %3, align 8, !tbaa !87
  %8 = getelementptr inbounds nuw %struct.getaddrinfo_arg, ptr %7, i32 0, i32 8
  store i32 1, ptr %8, align 8, !tbaa !94
  %9 = load ptr, ptr %3, align 8, !tbaa !87
  %10 = getelementptr inbounds nuw %struct.getaddrinfo_arg, ptr %9, i32 0, i32 10
  call void @rb_native_cond_signal(ptr noundef %10)
  %11 = load ptr, ptr %3, align 8, !tbaa !87
  %12 = getelementptr inbounds nuw %struct.getaddrinfo_arg, ptr %11, i32 0, i32 9
  call void @rb_nativethread_lock_unlock(ptr noundef %12)
  call void @llvm.lifetime.end.p0(i64 8, ptr %3) #24
  ret void
}