; Function Attrs: nounwind sspstrong uwtable
define internal void @cancel_getaddrinfo(ptr noundef %0) #0 {
  %2 = getelementptr inbounds nuw i8, ptr %0, i64 96
  tail call void @rb_nativethread_lock_lock(ptr noundef nonnull %2) #21
  %3 = getelementptr inbounds nuw i8, ptr %0, i64 88
  store i32 1, ptr %3, align 8, !tbaa !73
  %4 = getelementptr inbounds nuw i8, ptr %0, i64 136
  tail call void @rb_native_cond_signal(ptr noundef nonnull %4) #21
  tail call void @rb_nativethread_lock_unlock(ptr noundef nonnull %2) #21
  ret void
}